target datalayout = "e-m:e-p270:32:32-p271:32:32-p272:64:64-i64:64-i128:128-f80:128-n8:16:32:64-S128"
target triple = "x86_64-pc-linux-gnu"

%struct._type_ignore = type { i32, %union.anon.76 }
%union.anon.76 = type { %struct.anon.77 }
%struct.anon.77 = type { i32, ptr }

@PyExc_ValueError = external global ptr, align 8
@.str.70 = private unnamed_addr constant [39 x i8] c"field 'tag' is required for TypeIgnore\00", align 1

; Function Attrs: nounwind uwtable
define hidden ptr @_PyAST_TypeIgnore(i32 noundef %0, ptr noundef %1, ptr noundef %2) #0 {
  %4 = alloca ptr, align 8
  %5 = alloca i32, align 4
  %6 = alloca ptr, align 8
  %7 = alloca ptr, align 8
  %8 = alloca ptr, align 8
  %9 = alloca i32, align 4
  store i32 %0, ptr %5, align 4, !tbaa !38
  store ptr %1, ptr %6, align 8, !tbaa !13
  store ptr %2, ptr %7, align 8, !tbaa !24
  call void @llvm.lifetime.start.p0(i64 8, ptr %8) #8
  %10 = load ptr, ptr %6, align 8, !tbaa !13
  %11 = icmp ne ptr %10, null
  br i1 %11, label %14, label %12

12:                                               ; preds = %3
  %13 = load ptr, ptr @PyExc_ValueError, align 8, !tbaa !13
  call void @PyErr_SetString(ptr noundef %13, ptr noundef @.str.70)
  store ptr null, ptr %4, align 8
  store i32 1, ptr %9, align 4
  br label %32

14:                                               ; preds = %3
  %15 = load ptr, ptr %7, align 8, !tbaa !24
  %16 = call ptr @_PyArena_Malloc(ptr noundef %15, i64 noundef 24)
  store ptr %16, ptr %8, align 8, !tbaa !123
  %17 = load ptr, ptr %8, align 8, !tbaa !123
  %18 = icmp ne ptr %17, null
  br i1 %18, label %20, label %19

19:                                               ; preds = %14
  store ptr null, ptr %4, align 8
  store i32 1, ptr %9, align 4
  br label %32

20:                                               ; preds = %14
  %21 = load ptr, ptr %8, align 8, !tbaa !123
  %22 = getelementptr inbounds nuw %struct._type_ignore, ptr %21, i32 0, i32 0
  store i32 1, ptr %22, align 8, !tbaa !125
  %23 = load i32, ptr %5, align 4, !tbaa !38
  %24 = load ptr, ptr %8, align 8, !tbaa !123
  %25 = getelementptr inbounds nuw %struct._type_ignore, ptr %24, i32 0, i32 1
  %26 = getelementptr inbounds nuw %struct.anon.77, ptr %25, i32 0, i32 0
  store i32 %23, ptr %26, align 8, !tbaa !21
  %27 = load ptr, ptr %6, align 8, !tbaa !13
  %28 = load ptr, ptr %8, align 8, !tbaa !123
  %29 = getelementptr inbounds nuw %struct._type_ignore, ptr %28, i32 0, i32 1
  %30 = getelementptr inbounds nuw %struct.anon.77, ptr %29, i32 0, i32 1
  store ptr %27, ptr %30, align 8, !tbaa !21
  %31 = load ptr, ptr %8, align 8, !tbaa !123
  store ptr %31, ptr %4, align 8
  store i32 1, ptr %9, align 4
  br label %32

32:                                               ; preds = %20, %19, %12
  call void @llvm.lifetime.end.p0(i64 8, ptr %8) #8
  %33 = load ptr, ptr %4, align 8
  ret ptr %33
}