; Function Attrs: nounwind uwtable
define hidden ptr @_PyAST_TypeIgnore(i32 noundef %0, ptr noundef %1, ptr noundef %2) local_unnamed_addr #0 {
  %.not = icmp eq ptr %1, null
  br i1 %.not, label %4, label %6

4:                                                ; preds = %3
  %5 = load ptr, ptr @PyExc_ValueError, align 8, !tbaa !4
  tail call void @PyErr_SetString(ptr noundef %5, ptr noundef nonnull @.str.70) #8
  br label %11

6:                                                ; preds = %3
  %7 = tail call ptr @_PyArena_Malloc(ptr noundef %2, i64 noundef 24) #8
  %.not11 = icmp eq ptr %7, null
  br i1 %.not11, label %11, label %8

8:                                                ; preds = %6
  store i32 1, ptr %7, align 8, !tbaa !89
  %9 = getelementptr inbounds nuw i8, ptr %7, i64 8
  store i32 %0, ptr %9, align 8, !tbaa !9
  %10 = getelementptr inbounds nuw i8, ptr %7, i64 16
  store ptr %1, ptr %10, align 8, !tbaa !9
  br label %11

11:                                               ; preds = %6, %8, %4
  %.0 = phi ptr [ %7, %8 ], [ null, %4 ], [ null, %6 ]
  ret ptr %.0
}